target datalayout = "e-m:e-p270:32:32-p271:32:32-p272:64:64-i64:64-i128:128-f80:128-n8:16:32:64-S128"
target triple = "x86_64-pc-linux-gnu"

%struct.cmsCIEXYZ = type { double, double, double }

; Function Attrs: nounwind uwtable
define internal void @NormalizeXYZ(ptr noundef %0) #0 {
  %2 = alloca ptr, align 8
  store ptr %0, ptr %2, align 8
  br label %3

3:                                                ; preds = %20, %1
  %4 = load ptr, ptr %2, align 8
  %5 = getelementptr inbounds %struct.cmsCIEXYZ, ptr %4, i32 0, i32 0
  %6 = load double, ptr %5, align 8
  %7 = fcmp ogt double %6, 2.000000e+00
  br i1 %7, label %8, label %18

8:                                                ; preds = %3
  %9 = load ptr, ptr %2, align 8
  %10 = getelementptr inbounds %struct.cmsCIEXYZ, ptr %9, i32 0, i32 1
  %11 = load double, ptr %10, align 8
  %12 = fcmp ogt double %11, 2.000000e+00
  br i1 %12, label %13, label %18

13:                                               ; preds = %8
  %14 = load ptr, ptr %2, align 8
  %15 = getelementptr inbounds %struct.cmsCIEXYZ, ptr %14, i32 0, i32 2
  %16 = load double, ptr %15, align 8
  %17 = fcmp ogt double %16, 2.000000e+00
  br label %18

18:                                               ; preds = %13, %8, %3
  %19 = phi i1 [ false, %8 ], [ false, %3 ], [ %17, %13 ]
  br i1 %19, label %20, label %33

20:                                               ; preds = %18
  %21 = load ptr, ptr %2, align 8
  %22 = getelementptr inbounds %struct.cmsCIEXYZ, ptr %21, i32 0, i32 0
  %23 = load double, ptr %22, align 8
  %24 = fdiv double %23, 1.000000e+01
  store double %24, ptr %22, align 8
  %25 = load ptr, ptr %2, align 8
  %26 = getelementptr inbounds %struct.cmsCIEXYZ, ptr %25, i32 0, i32 1
  %27 = load double, ptr %26, align 8
  %28 = fdiv double %27, 1.000000e+01
  store double %28, ptr %26, align 8
  %29 = load ptr, ptr %2, align 8
  %30 = getelementptr inbounds %struct.cmsCIEXYZ, ptr %29, i32 0, i32 2
  %31 = load double, ptr %30, align 8
  %32 = fdiv double %31, 1.000000e+01
  store double %32, ptr %30, align 8
  br label %3, !llvm.loop !28

33:                                               ; preds = %18
  ret void
}

; Function Attrs: nounwind uwtable
define internal void @SetWhitePoint(ptr noundef %0, ptr noundef %1) #0 {
  %3 = alloca ptr, align 8
  %4 = alloca ptr, align 8
  store ptr %0, ptr %3, align 8
  store ptr %1, ptr %4, align 8
  %5 = load ptr, ptr %4, align 8
  %6 = icmp eq ptr %5, null
  br i1 %6, label %7, label %14

7:                                                ; preds = %2
  %8 = load ptr, ptr %3, align 8
  %9 = getelementptr inbounds %struct.cmsCIEXYZ, ptr %8, i32 0, i32 0
  store double 0x3FEEDAB9F559B3D0, ptr %9, align 8
  %10 = load ptr, ptr %3, align 8
  %11 = getelementptr inbounds %struct.cmsCIEXYZ, ptr %10, i32 0, i32 1
  store double 1.000000e+00, ptr %11, align 8
  %12 = load ptr, ptr %3, align 8
  %13 = getelementptr inbounds %struct.cmsCIEXYZ, ptr %12, i32 0, i32 2
  store double 0x3FEA6594AF4F0D84, ptr %13, align 8
  br label %31

14:                                               ; preds = %2
  %15 = load ptr, ptr %4, align 8
  %16 = getelementptr inbounds %struct.cmsCIEXYZ, ptr %15, i32 0, i32 0
  %17 = load double, ptr %16, align 8
  %18 = load ptr, ptr %3, align 8
  %19 = getelementptr inbounds %struct.cmsCIEXYZ, ptr %18, i32 0, i32 0
  store double %17, ptr %19, align 8
  %20 = load ptr, ptr %4, align 8
  %21 = getelementptr inbounds %struct.cmsCIEXYZ, ptr %20, i32 0, i32 1
  %22 = load double, ptr %21, align 8
  %23 = load ptr, ptr %3, align 8
  %24 = getelementptr inbounds %struct.cmsCIEXYZ, ptr %23, i32 0, i32 1
  store double %22, ptr %24, align 8
  %25 = load ptr, ptr %4, align 8
  %26 = getelementptr inbounds %struct.cmsCIEXYZ, ptr %25, i32 0, i32 2
  %27 = load double, ptr %26, align 8
  %28 = load ptr, ptr %3, align 8
  %29 = getelementptr inbounds %struct.cmsCIEXYZ, ptr %28, i32 0, i32 2
  store double %27, ptr %29, align 8
  %30 = load ptr, ptr %3, align 8
  call void @NormalizeXYZ(ptr noundef %30)
  br label %31

31:                                               ; preds = %14, %7
  ret void
}