; Function Attrs: nofree norecurse nosync nounwind memory(argmem: readwrite) uwtable
define internal fastcc void @SetWhitePoint(ptr nocapture noundef writeonly %0, ptr noundef readonly %1) unnamed_addr #6 {
  %3 = icmp eq ptr %1, null
  br i1 %3, label %4, label %6

4:                                                ; preds = %2
  store <2 x double> <double 0x3FEEDAB9F559B3D0, double 1.000000e+00>, ptr %0, align 8
  %5 = getelementptr inbounds i8, ptr %0, i64 16
  store double 0x3FEA6594AF4F0D84, ptr %5, align 8
  br label %NormalizeXYZ.exit

6:                                                ; preds = %2
  %7 = getelementptr inbounds i8, ptr %1, i64 8
  %8 = load double, ptr %1, align 8
  store double %8, ptr %0, align 8
  %9 = load double, ptr %7, align 8
  %10 = getelementptr inbounds i8, ptr %0, i64 8
  store double %9, ptr %10, align 8
  %11 = getelementptr inbounds i8, ptr %1, i64 16
  %12 = load double, ptr %11, align 8
  %13 = getelementptr inbounds i8, ptr %0, i64 16
  store double %12, ptr %13, align 8
  %14 = fcmp ogt double %8, 2.000000e+00
  br i1 %14, label %.lr.ph.i.preheader, label %NormalizeXYZ.exit

.lr.ph.i.preheader:                               ; preds = %6
  %15 = insertelement <2 x double> poison, double %8, i64 0
  %16 = insertelement <2 x double> %15, double %9, i64 1
  br label %.lr.ph.i

.lr.ph.i:                                         ; preds = %.lr.ph.i.preheader, %22
  %17 = phi double [ %24, %22 ], [ %12, %.lr.ph.i.preheader ]
  %18 = phi <2 x double> [ %23, %22 ], [ %16, %.lr.ph.i.preheader ]
  %19 = extractelement <2 x double> %18, i64 1
  %20 = fcmp ogt double %19, 2.000000e+00
  %21 = fcmp ogt double %17, 2.000000e+00
  %or.cond = select i1 %20, i1 %21, i1 false
  br i1 %or.cond, label %22, label %NormalizeXYZ.exit

22:                                               ; preds = %.lr.ph.i
  %23 = fdiv <2 x double> %18, <double 1.000000e+01, double 1.000000e+01>
  store <2 x double> %23, ptr %0, align 8
  %24 = fdiv double %17, 1.000000e+01
  store double %24, ptr %13, align 8
  %25 = extractelement <2 x double> %23, i64 0
  %26 = fcmp ogt double %25, 2.000000e+00
  br i1 %26, label %.lr.ph.i, label %NormalizeXYZ.exit, !llvm.loop !10

NormalizeXYZ.exit:                                ; preds = %22, %.lr.ph.i, %6, %4
  ret void
}